target datalayout = "e-m:e-p270:32:32-p271:32:32-p272:64:64-i64:64-i128:128-f80:128-n8:16:32:64-S128"
target triple = "x86_64-unknown-linux-gnu"

%class.btTransform = type { %class.btMatrix3x3, %class.btVector3 }
%class.btMatrix3x3 = type { [3 x %class.btVector3] }
%class.btVector3 = type { [4 x float] }
%class.btCollisionShape = type { ptr, i32, ptr, i32, i32 }
%"struct.btDbvt::ICollide" = type { ptr }
%class.btCompoundShape = type { %class.btCollisionShape, %class.btAlignedObjectArray.10, %class.btVector3, %class.btVector3, ptr, i32, float, %class.btVector3 }
%class.btAlignedObjectArray.10 = type <{ %class.btAlignedAllocator.11, [3 x i8], i32, i32, [4 x i8], ptr, i8, [7 x i8] }>
%class.btAlignedAllocator.11 = type { i8 }
%struct.btDbvtNode = type { %struct.btDbvtAabbMm, ptr, %union.anon.46 }
%struct.btDbvtAabbMm = type { %class.btVector3, %class.btVector3 }
%union.anon.46 = type { [2 x ptr] }
%struct.btCompoundLeafCallback = type { %"struct.btDbvt::ICollide", ptr, ptr, ptr, ptr, float, ptr, ptr, ptr }
%struct.btCompoundShapeChild = type { %class.btTransform, ptr, i32, float, ptr }

; Function Attrs: mustprogress nounwind uwtable
define linkonce_odr dso_local void @_ZN9btVector3C2Ev(ptr noundef nonnull align 4 dereferenceable(16) %this) unnamed_addr #1 comdat align 2 {
entry:
  %this.addr = alloca ptr, align 8
  store ptr %this, ptr %this.addr, align 8
  ret void
}

; Function Attrs: mustprogress uwtable
define linkonce_odr dso_local void @_ZN11btMatrix3x3C2ERKS_(ptr noundef nonnull align 4 dereferenceable(48) %this, ptr noundef nonnull align 4 dereferenceable(48) %other) unnamed_addr #2 comdat align 2 {
entry:
  %this.addr = alloca ptr, align 8
  %other.addr = alloca ptr, align 8
  store ptr %this, ptr %this.addr, align 8
  store ptr %other, ptr %other.addr, align 8
  %this1 = load ptr, ptr %this.addr, align 8
  %m_el = getelementptr inbounds %class.btMatrix3x3, ptr %this1, i32 0, i32 0
  %array.begin = getelementptr inbounds [3 x %class.btVector3], ptr %m_el, i32 0, i32 0
  %arrayctor.end = getelementptr inbounds %class.btVector3, ptr %array.begin, i64 3
  br label %arrayctor.loop

arrayctor.loop:                                   ; preds = %arrayctor.loop, %entry
  %arrayctor.cur = phi ptr [ %array.begin, %entry ], [ %arrayctor.next, %arrayctor.loop ]
  call void @_ZN9btVector3C2Ev(ptr noundef nonnull align 4 dereferenceable(16) %arrayctor.cur)
  %arrayctor.next = getelementptr inbounds %class.btVector3, ptr %arrayctor.cur, i64 1
  %arrayctor.done = icmp eq ptr %arrayctor.next, %arrayctor.end
  br i1 %arrayctor.done, label %arrayctor.cont, label %arrayctor.loop

arrayctor.cont:                                   ; preds = %arrayctor.loop
  %0 = load ptr, ptr %other.addr, align 8
  %m_el2 = getelementptr inbounds %class.btMatrix3x3, ptr %0, i32 0, i32 0
  %arrayidx = getelementptr inbounds [3 x %class.btVector3], ptr %m_el2, i64 0, i64 0
  %m_el3 = getelementptr inbounds %class.btMatrix3x3, ptr %this1, i32 0, i32 0
  %arrayidx4 = getelementptr inbounds [3 x %class.btVector3], ptr %m_el3, i64 0, i64 0
  call void @llvm.memcpy.p0.p0.i64(ptr align 4 %arrayidx4, ptr align 4 %arrayidx, i64 16, i1 false)
  %1 = load ptr, ptr %other.addr, align 8
  %m_el5 = getelementptr inbounds %class.btMatrix3x3, ptr %1, i32 0, i32 0
  %arrayidx6 = getelementptr inbounds [3 x %class.btVector3], ptr %m_el5, i64 0, i64 1
  %m_el7 = getelementptr inbounds %class.btMatrix3x3, ptr %this1, i32 0, i32 0
  %arrayidx8 = getelementptr inbounds [3 x %class.btVector3], ptr %m_el7, i64 0, i64 1
  call void @llvm.memcpy.p0.p0.i64(ptr align 4 %arrayidx8, ptr align 4 %arrayidx6, i64 16, i1 false)
  %2 = load ptr, ptr %other.addr, align 8
  %m_el9 = getelementptr inbounds %class.btMatrix3x3, ptr %2, i32 0, i32 0
  %arrayidx10 = getelementptr inbounds [3 x %class.btVector3], ptr %m_el9, i64 0, i64 2
  %m_el11 = getelementptr inbounds %class.btMatrix3x3, ptr %this1, i32 0, i32 0
  %arrayidx12 = getelementptr inbounds [3 x %class.btVector3], ptr %m_el11, i64 0, i64 2
  call void @llvm.memcpy.p0.p0.i64(ptr align 4 %arrayidx12, ptr align 4 %arrayidx10, i64 16, i1 false)
  ret void
}

; Function Attrs: mustprogress nounwind uwtable
define linkonce_odr dso_local noundef nonnull align 8 dereferenceable(88) ptr @_ZNK20btAlignedObjectArrayI20btCompoundShapeChildEixEi(ptr noundef nonnull align 8 dereferenceable(25) %this, i32 noundef %n) #1 comdat align 2 {
entry:
  %this.addr = alloca ptr, align 8
  %n.addr = alloca i32, align 4
  store ptr %this, ptr %this.addr, align 8
  store i32 %n, ptr %n.addr, align 4
  %this1 = load ptr, ptr %this.addr, align 8
  %m_data = getelementptr inbounds %class.btAlignedObjectArray.10, ptr %this1, i32 0, i32 5
  %0 = load ptr, ptr %m_data, align 8
  %1 = load i32, ptr %n.addr, align 4
  %idxprom = sext i32 %1 to i64
  %arrayidx = getelementptr inbounds %struct.btCompoundShapeChild, ptr %0, i64 %idxprom
  ret ptr %arrayidx
}

; Function Attrs: mustprogress uwtable
define linkonce_odr dso_local noundef ptr @_ZNK15btCompoundShape13getChildShapeEi(ptr noundef nonnull align 8 dereferenceable(128) %this, i32 noundef %index) #2 comdat align 2 {
entry:
  %this.addr = alloca ptr, align 8
  %index.addr = alloca i32, align 4
  store ptr %this, ptr %this.addr, align 8
  store i32 %index, ptr %index.addr, align 4
  %this1 = load ptr, ptr %this.addr, align 8
  %m_children = getelementptr inbounds %class.btCompoundShape, ptr %this1, i32 0, i32 1
  %0 = load i32, ptr %index.addr, align 4
  %call = call noundef nonnull align 8 dereferenceable(88) ptr @_ZNK20btAlignedObjectArrayI20btCompoundShapeChildEixEi(ptr noundef nonnull align 8 dereferenceable(25) %m_children, i32 noundef %0)
  %m_childShape = getelementptr inbounds %struct.btCompoundShapeChild, ptr %call, i32 0, i32 1
  %1 = load ptr, ptr %m_childShape, align 8
  ret ptr %1
}

; Function Attrs: mustprogress uwtable
define linkonce_odr dso_local void @_ZN11btTransformC2ERKS_(ptr noundef nonnull align 4 dereferenceable(64) %this, ptr noundef nonnull align 4 dereferenceable(64) %other) unnamed_addr #2 comdat align 2 {
entry:
  %this.addr = alloca ptr, align 8
  %other.addr = alloca ptr, align 8
  store ptr %this, ptr %this.addr, align 8
  store ptr %other, ptr %other.addr, align 8
  %this1 = load ptr, ptr %this.addr, align 8
  %m_basis = getelementptr inbounds %class.btTransform, ptr %this1, i32 0, i32 0
  %0 = load ptr, ptr %other.addr, align 8
  %m_basis2 = getelementptr inbounds %class.btTransform, ptr %0, i32 0, i32 0
  call void @_ZN11btMatrix3x3C2ERKS_(ptr noundef nonnull align 4 dereferenceable(48) %m_basis, ptr noundef nonnull align 4 dereferenceable(48) %m_basis2)
  %m_origin = getelementptr inbounds %class.btTransform, ptr %this1, i32 0, i32 1
  %1 = load ptr, ptr %other.addr, align 8
  %m_origin3 = getelementptr inbounds %class.btTransform, ptr %1, i32 0, i32 1
  call void @llvm.memcpy.p0.p0.i64(ptr align 4 %m_origin, ptr align 4 %m_origin3, i64 16, i1 false)
  ret void
}

; Function Attrs: mustprogress nounwind uwtable
define linkonce_odr dso_local noundef nonnull align 4 dereferenceable(64) ptr @_ZNK15btCompoundShape17getChildTransformEi(ptr noundef nonnull align 8 dereferenceable(128) %this, i32 noundef %index) #1 comdat align 2 {
entry:
  %this.addr = alloca ptr, align 8
  %index.addr = alloca i32, align 4
  store ptr %this, ptr %this.addr, align 8
  store i32 %index, ptr %index.addr, align 4
  %this1 = load ptr, ptr %this.addr, align 8
  %m_children = getelementptr inbounds %class.btCompoundShape, ptr %this1, i32 0, i32 1
  %0 = load i32, ptr %index.addr, align 4
  %call = call noundef nonnull align 8 dereferenceable(88) ptr @_ZNK20btAlignedObjectArrayI20btCompoundShapeChildEixEi(ptr noundef nonnull align 8 dereferenceable(25) %m_children, i32 noundef %0)
  %m_transform = getelementptr inbounds %struct.btCompoundShapeChild, ptr %call, i32 0, i32 0
  ret ptr %m_transform
}

; Function Attrs: mustprogress uwtable
define internal void @_ZZN16btCollisionWorld25objectQuerySingleInternalEPK13btConvexShapeRK11btTransformS5_PK24btCollisionObjectWrapperRNS_20ConvexResultCallbackEfEN22btCompoundLeafCallback7ProcessEPK10btDbvtNode(ptr noundef nonnull align 8 dereferenceable(72) %this, ptr noundef %leaf) unnamed_addr #2 align 2 {
entry:
  %this.addr = alloca ptr, align 8
  %leaf.addr = alloca ptr, align 8
  %index = alloca i32, align 4
  %childTrans = alloca %class.btTransform, align 4
  %childCollisionShape = alloca ptr, align 8
  store ptr %this, ptr %this.addr, align 8
  store ptr %leaf, ptr %leaf.addr, align 8
  %this1 = load ptr, ptr %this.addr, align 8
  %0 = load ptr, ptr %leaf.addr, align 8
  %1 = getelementptr inbounds %struct.btDbvtNode, ptr %0, i32 0, i32 2
  %2 = load i32, ptr %1, align 8
  store i32 %2, ptr %index, align 4
  %m_compoundShape = getelementptr inbounds %struct.btCompoundLeafCallback, ptr %this1, i32 0, i32 6
  %3 = load ptr, ptr %m_compoundShape, align 8
  %4 = load i32, ptr %index, align 4
  %call = call noundef nonnull align 4 dereferenceable(64) ptr @_ZNK15btCompoundShape17getChildTransformEi(ptr noundef nonnull align 8 dereferenceable(128) %3, i32 noundef %4)
  call void @_ZN11btTransformC2ERKS_(ptr noundef nonnull align 4 dereferenceable(64) %childTrans, ptr noundef nonnull align 4 dereferenceable(64) %call)
  %m_compoundShape2 = getelementptr inbounds %struct.btCompoundLeafCallback, ptr %this1, i32 0, i32 6
  %5 = load ptr, ptr %m_compoundShape2, align 8
  %6 = load i32, ptr %index, align 4
  %call3 = call noundef ptr @_ZNK15btCompoundShape13getChildShapeEi(ptr noundef nonnull align 8 dereferenceable(128) %5, i32 noundef %6)
  store ptr %call3, ptr %childCollisionShape, align 8
  %7 = load i32, ptr %index, align 4
  %8 = load ptr, ptr %childCollisionShape, align 8
  call void @_ZZN16btCollisionWorld25objectQuerySingleInternalEPK13btConvexShapeRK11btTransformS5_PK24btCollisionObjectWrapperRNS_20ConvexResultCallbackEfEN22btCompoundLeafCallback12ProcessChildEiS5_PK16btCollisionShape(ptr noundef nonnull align 8 dereferenceable(72) %this1, i32 noundef %7, ptr noundef nonnull align 4 dereferenceable(64) %childTrans, ptr noundef %8)
  ret void
}