; Function Attrs: mustprogress uwtable
define internal void @_ZZN16btCollisionWorld25objectQuerySingleInternalEPK13btConvexShapeRK11btTransformS5_PK24btCollisionObjectWrapperRNS_20ConvexResultCallbackEfEN22btCompoundLeafCallback7ProcessEPK10btDbvtNode(ptr nocapture noundef nonnull readonly align 8 dereferenceable(72) %this, ptr nocapture noundef readonly %leaf) unnamed_addr #4 align 2 {
entry:
  %childTrans = alloca %class.btTransform, align 4
  %0 = getelementptr inbounds i8, ptr %leaf, i64 40
  %1 = load i32, ptr %0, align 8
  %m_compoundShape = getelementptr inbounds i8, ptr %this, i64 48
  %2 = load ptr, ptr %m_compoundShape, align 8
  %m_data.i.i = getelementptr inbounds i8, ptr %2, i64 48
  %3 = load ptr, ptr %m_data.i.i, align 8
  %idxprom.i.i = sext i32 %1 to i64
  %arrayidx.i.i = getelementptr inbounds %struct.btCompoundShapeChild, ptr %3, i64 %idxprom.i.i
  call void @llvm.memcpy.p0.p0.i64(ptr noundef nonnull align 4 dereferenceable(16) %childTrans, ptr noundef nonnull align 4 dereferenceable(16) %arrayidx.i.i, i64 16, i1 false)
  %arrayidx6.i.i = getelementptr inbounds i8, ptr %arrayidx.i.i, i64 16
  %arrayidx8.i.i = getelementptr inbounds i8, ptr %childTrans, i64 16
  call void @llvm.memcpy.p0.p0.i64(ptr noundef nonnull align 4 dereferenceable(16) %arrayidx8.i.i, ptr noundef nonnull align 4 dereferenceable(16) %arrayidx6.i.i, i64 16, i1 false)
  %arrayidx10.i.i = getelementptr inbounds i8, ptr %arrayidx.i.i, i64 32
  %arrayidx12.i.i = getelementptr inbounds i8, ptr %childTrans, i64 32
  call void @llvm.memcpy.p0.p0.i64(ptr noundef nonnull align 4 dereferenceable(16) %arrayidx12.i.i, ptr noundef nonnull align 4 dereferenceable(16) %arrayidx10.i.i, i64 16, i1 false)
  %m_origin.i = getelementptr inbounds i8, ptr %childTrans, i64 48
  %m_origin3.i = getelementptr inbounds i8, ptr %arrayidx.i.i, i64 48
  call void @llvm.memcpy.p0.p0.i64(ptr noundef nonnull align 4 dereferenceable(16) %m_origin.i, ptr noundef nonnull align 4 dereferenceable(16) %m_origin3.i, i64 16, i1 false)
  %m_childShape.i = getelementptr inbounds %struct.btCompoundShapeChild, ptr %3, i64 %idxprom.i.i, i32 1
  %4 = load ptr, ptr %m_childShape.i, align 8
  call fastcc void @_ZZN16btCollisionWorld25objectQuerySingleInternalEPK13btConvexShapeRK11btTransformS5_PK24btCollisionObjectWrapperRNS_20ConvexResultCallbackEfEN22btCompoundLeafCallback12ProcessChildEiS5_PK16btCollisionShape(ptr noundef nonnull align 8 dereferenceable(72) %this, i32 noundef %1, ptr noundef nonnull align 4 dereferenceable(64) %childTrans, ptr noundef %4)
  ret void
}